; Function Attrs: nounwind uwtable
define dso_local ptr @strmap_put(ptr noundef %0, ptr noundef %1, ptr noundef %2) local_unnamed_addr #5 {
  %4 = alloca %struct.strmap_entry, align 8
  call void @llvm.lifetime.start.p0(i64 32, ptr nonnull %4) #10
  %5 = tail call i32 @strhash(ptr noundef %1) #10
  %6 = getelementptr inbounds nuw i8, ptr %4, i64 8
  store i32 %5, ptr %6, align 8, !tbaa !21
  store ptr null, ptr %4, align 8, !tbaa !22
  %7 = getelementptr inbounds nuw i8, ptr %4, i64 16
  store ptr %1, ptr %7, align 8, !tbaa !4
  %8 = call ptr @hashmap_get(ptr noundef %0, ptr noundef nonnull %4, ptr noundef null) #10
  call void @llvm.lifetime.end.p0(i64 32, ptr nonnull %4) #10
  %.not = icmp eq ptr %8, null
  br i1 %.not, label %12, label %9

9:                                                ; preds = %3
  %10 = getelementptr inbounds nuw i8, ptr %8, i64 24
  %11 = load ptr, ptr %10, align 8, !tbaa !20
  store ptr %2, ptr %10, align 8, !tbaa !20
  br label %14

12:                                               ; preds = %3
  %13 = call fastcc ptr @create_entry(ptr noundef %0, ptr noundef %1, ptr noundef %2)
  call void @hashmap_add(ptr noundef %0, ptr noundef %13) #10
  br label %14

14:                                               ; preds = %12, %9
  %.0 = phi ptr [ %11, %9 ], [ null, %12 ]
  ret ptr %.0
}